; Function Attrs: mustprogress uwtable
define void @_ZNK10open_spiel11negotiation16NegotiationState15DecodeUtteranceEi(ptr dead_on_unwind noalias nocapture writable writeonly sret(%"class.std::vector.9") align 8 %0, ptr nocapture noundef nonnull readonly align 8 dereferenceable(208) %1, i32 noundef %2) local_unnamed_addr #3 align 2 {
  %4 = getelementptr inbounds nuw i8, ptr %1, i64 64
  %5 = load ptr, ptr %4, align 8
  %6 = getelementptr inbounds nuw i8, ptr %5, i64 284
  %7 = load i32, ptr %6, align 4
  %8 = sitofp i32 %7 to double
  %9 = tail call noundef double @pow(double noundef 6.000000e+00, double noundef %8) #32
  %10 = fptosi double %9 to i32
  %.neg = xor i32 %10, -1
  %11 = add i32 %2, %.neg
  %12 = getelementptr inbounds nuw i8, ptr %1, i64 84
  %13 = load i32, ptr %12, align 4
  %14 = getelementptr inbounds nuw i8, ptr %1, i64 80
  %15 = load i32, ptr %14, align 8
  tail call void @_ZNK10open_spiel11negotiation16NegotiationState13DecodeIntegerEiii(ptr dead_on_unwind writable sret(%"class.std::vector.9") align 8 %0, ptr nonnull align 8 poison, i32 noundef %11, i32 noundef %13, i32 noundef %15)
  ret void
}